; Function Attrs: nounwind uwtable
define void @Abc_NtkDeleteObjPo(ptr noundef %0) local_unnamed_addr #0 {
  %2 = load ptr, ptr %0, align 8, !tbaa !24
  %3 = getelementptr inbounds nuw i8, ptr %2, i64 24
  %4 = load ptr, ptr %3, align 8, !tbaa !45
  %5 = getelementptr inbounds nuw i8, ptr %0, i64 16
  %6 = load i32, ptr %5, align 8, !tbaa !27
  %7 = tail call ptr @Nm_ManFindNameById(ptr noundef %4, i32 noundef %6) #10
  %.not = icmp eq ptr %7, null
  br i1 %.not, label %13, label %8

8:                                                ; preds = %1
  %9 = load ptr, ptr %0, align 8, !tbaa !24
  %10 = getelementptr inbounds nuw i8, ptr %9, i64 24
  %11 = load ptr, ptr %10, align 8, !tbaa !45
  %12 = load i32, ptr %5, align 8, !tbaa !27
  tail call void @Nm_ManDeleteIdName(ptr noundef %11, i32 noundef %12) #10
  br label %13

13:                                               ; preds = %8, %1
  %.val13 = load ptr, ptr %0, align 8, !tbaa !24
  %14 = getelementptr i8, ptr %0, i64 32
  %.val14 = load ptr, ptr %14, align 8, !tbaa !30
  %15 = getelementptr i8, ptr %.val13, i64 32
  %.val13.val = load ptr, ptr %15, align 8, !tbaa !31
  %.val14.val = load i32, ptr %.val14, align 4, !tbaa !37
  %16 = getelementptr i8, ptr %.val13.val, i64 8
  %.val13.val.val = load ptr, ptr %16, align 8, !tbaa !35
  %17 = sext i32 %.val14.val to i64
  %18 = getelementptr inbounds ptr, ptr %.val13.val.val, i64 %17
  %19 = load ptr, ptr %18, align 8, !tbaa !36
  tail call void @Abc_ObjDeleteFanin(ptr noundef nonnull %0, ptr noundef %19) #10
  %20 = load ptr, ptr %0, align 8, !tbaa !24
  %21 = getelementptr inbounds nuw i8, ptr %20, i64 32
  %22 = load ptr, ptr %21, align 8, !tbaa !31
  %23 = load i32, ptr %5, align 8, !tbaa !27
  %24 = getelementptr i8, ptr %22, i64 8
  %.val = load ptr, ptr %24, align 8, !tbaa !35
  %25 = sext i32 %23 to i64
  %26 = getelementptr inbounds ptr, ptr %.val, i64 %25
  store ptr null, ptr %26, align 8, !tbaa !36
  store i32 67108863, ptr %5, align 8, !tbaa !27
  %27 = load ptr, ptr %0, align 8, !tbaa !24
  %28 = getelementptr inbounds nuw i8, ptr %27, i64 96
  %29 = getelementptr inbounds nuw i8, ptr %0, i64 20
  %30 = load i32, ptr %29, align 4
  %31 = and i32 %30, 15
  %32 = zext nneg i32 %31 to i64
  %33 = getelementptr inbounds nuw [11 x i32], ptr %28, i64 0, i64 %32
  %34 = load i32, ptr %33, align 4, !tbaa !37
  %35 = add nsw i32 %34, -1
  store i32 %35, ptr %33, align 4, !tbaa !37
  %36 = getelementptr inbounds nuw i8, ptr %27, i64 140
  %37 = load i32, ptr %36, align 4, !tbaa !38
  %38 = add nsw i32 %37, -1
  store i32 %38, ptr %36, align 4, !tbaa !38
  %39 = getelementptr inbounds nuw i8, ptr %27, i64 248
  %40 = load ptr, ptr %39, align 8, !tbaa !28
  %41 = icmp eq ptr %40, null
  br i1 %41, label %42, label %49

42:                                               ; preds = %13
  %43 = getelementptr inbounds nuw i8, ptr %0, i64 48
  %44 = load ptr, ptr %43, align 8, !tbaa !29
  %.not.i = icmp eq ptr %44, null
  br i1 %.not.i, label %46, label %45

45:                                               ; preds = %42
  tail call void @free(ptr noundef nonnull %44) #10
  store ptr null, ptr %43, align 8, !tbaa !29
  br label %46

46:                                               ; preds = %45, %42
  %47 = load ptr, ptr %14, align 8, !tbaa !30
  %.not16.i = icmp eq ptr %47, null
  br i1 %.not16.i, label %49, label %48

48:                                               ; preds = %46
  tail call void @free(ptr noundef nonnull %47) #10
  br label %49

49:                                               ; preds = %48, %46, %13
  tail call void @llvm.memset.p0.i64(ptr noundef nonnull align 8 dereferenceable(72) %0, i8 0, i64 72, i1 false)
  %50 = getelementptr inbounds nuw i8, ptr %27, i64 240
  %51 = load ptr, ptr %50, align 8, !tbaa !3
  %.not17.i = icmp eq ptr %51, null
  br i1 %.not17.i, label %53, label %52

52:                                               ; preds = %49
  tail call void @Mem_FixedEntryRecycle(ptr noundef nonnull %51, ptr noundef nonnull %0) #10
  br label %Abc_ObjRecycle.exit

53:                                               ; preds = %49
  tail call void @free(ptr noundef nonnull %0) #10
  br label %Abc_ObjRecycle.exit

Abc_ObjRecycle.exit:                              ; preds = %52, %53
  ret void
}